target datalayout = "e-m:e-p270:32:32-p271:32:32-p272:64:64-i64:64-i128:128-f80:128-n8:16:32:64-S128"
target triple = "x86_64-pc-linux-gnu"

; Function Attrs: inlinehint nounwind uwtable
define internal i32 @Abc_InfoMask(i32 noundef %0) #4 {
  %2 = alloca i32, align 4
  store i32 %0, ptr %2, align 4, !tbaa !8
  %3 = load i32, ptr %2, align 4, !tbaa !8
  %4 = sub nsw i32 32, %3
  %5 = lshr i32 -1, %4
  ret i32 %5
}

; Function Attrs: nounwind uwtable
define i32 @Gem_GroupVarsInsert1(i32 noundef %0, i32 noundef %1, i32 noundef %2) #0 {
  %4 = alloca i32, align 4
  %5 = alloca i32, align 4
  %6 = alloca i32, align 4
  %7 = alloca i32, align 4
  store i32 %0, ptr %4, align 4, !tbaa !8
  store i32 %1, ptr %5, align 4, !tbaa !8
  store i32 %2, ptr %6, align 4, !tbaa !8
  call void @llvm.lifetime.start.p0(i64 4, ptr %7) #13
  %8 = load i32, ptr %5, align 4, !tbaa !8
  %9 = add nsw i32 %8, 1
  %10 = icmp ne i32 %9, 0
  br i1 %10, label %11, label %15

11:                                               ; preds = %3
  %12 = load i32, ptr %5, align 4, !tbaa !8
  %13 = add nsw i32 %12, 1
  %14 = call i32 @Abc_InfoMask(i32 noundef %13)
  br label %16

15:                                               ; preds = %3
  br label %16

16:                                               ; preds = %15, %11
  %17 = phi i32 [ %14, %11 ], [ 0, %15 ]
  store i32 %17, ptr %7, align 4, !tbaa !8
  %18 = load i32, ptr %4, align 4, !tbaa !8
  %19 = load i32, ptr %7, align 4, !tbaa !8
  %20 = and i32 %18, %19
  %21 = load i32, ptr %4, align 4, !tbaa !8
  %22 = load i32, ptr %7, align 4, !tbaa !8
  %23 = xor i32 %22, -1
  %24 = and i32 %21, %23
  %25 = shl i32 %24, 1
  %26 = or i32 %20, %25
  %27 = load i32, ptr %6, align 4, !tbaa !8
  %28 = load i32, ptr %5, align 4, !tbaa !8
  %29 = add nsw i32 %28, 1
  %30 = shl i32 %27, %29
  %31 = or i32 %26, %30
  call void @llvm.lifetime.end.p0(i64 4, ptr %7) #13
  ret i32 %31
}