; Function Attrs: mustprogress nofree norecurse nosync nounwind willreturn memory(none) uwtable
define i32 @Gem_GroupVarsInsert1(i32 noundef %0, i32 noundef %1, i32 noundef %2) local_unnamed_addr #11 {
  %4 = add nsw i32 %1, 1
  %.not = icmp eq i32 %4, 0
  %5 = sub nsw i32 31, %1
  %6 = lshr i32 -1, %5
  %7 = select i1 %.not, i32 0, i32 %6
  %8 = and i32 %7, %0
  %9 = xor i32 %7, -1
  %10 = and i32 %0, %9
  %11 = shl i32 %10, 1
  %12 = shl i32 %2, %4
  %13 = or i32 %8, %12
  %14 = or i32 %13, %11
  ret i32 %14
}